; Function Attrs: mustprogress nofree nounwind willreturn memory(write) uwtable
define void @_ZN8QuantLib13CEVCalculatorC2Eddd(ptr nocapture noundef nonnull writeonly align 8 dereferenceable(40) %this, double noundef %f0, double noundef %alpha, double noundef %beta) unnamed_addr #11 align 2 {
entry:
  store double %f0, ptr %this, align 8, !tbaa !39
  %alpha_ = getelementptr inbounds nuw i8, ptr %this, i64 8
  store double %alpha, ptr %alpha_, align 8, !tbaa !42
  %beta_ = getelementptr inbounds nuw i8, ptr %this, i64 16
  store double %beta, ptr %beta_, align 8, !tbaa !43
  %delta_ = getelementptr inbounds nuw i8, ptr %this, i64 24
  %0 = tail call double @llvm.fmuladd.f64(double %beta, double -2.000000e+00, double 1.000000e+00)
  %sub = fsub double 1.000000e+00, %beta
  %div = fdiv double %0, %sub
  store double %div, ptr %delta_, align 8, !tbaa !44
  %x0_ = getelementptr inbounds nuw i8, ptr %this, i64 32
  %mul.i = fmul double %sub, 2.000000e+00
  %call.i = tail call double @pow(double noundef %f0, double noundef %mul.i) #33, !tbaa !45
  %mul4.i = fmul double %alpha, %sub
  %mul.i.i = fmul double %mul4.i, %mul4.i
  %div.i = fdiv double %call.i, %mul.i.i
  store double %div.i, ptr %x0_, align 8, !tbaa !47
  ret void
}